target datalayout = "e-m:e-p270:32:32-p271:32:32-p272:64:64-i64:64-i128:128-f80:128-n8:16:32:64-S128"
target triple = "x86_64-pc-linux-gnu"

%struct.Vec_Int_t_ = type { i32, i32, ptr }

; Function Attrs: inlinehint nounwind uwtable
define internal void @Vec_IntGrow(ptr noundef %0, i32 noundef %1) #2 {
  %3 = alloca ptr, align 8
  %4 = alloca i32, align 4
  store ptr %0, ptr %3, align 8, !tbaa !10
  store i32 %1, ptr %4, align 4, !tbaa !8
  %5 = load ptr, ptr %3, align 8, !tbaa !10
  %6 = getelementptr inbounds nuw %struct.Vec_Int_t_, ptr %5, i32 0, i32 0
  %7 = load i32, ptr %6, align 8, !tbaa !17
  %8 = load i32, ptr %4, align 4, !tbaa !8
  %9 = icmp sge i32 %7, %8
  br i1 %9, label %10, label %11

10:                                               ; preds = %2
  br label %36

11:                                               ; preds = %2
  %12 = load ptr, ptr %3, align 8, !tbaa !10
  %13 = getelementptr inbounds nuw %struct.Vec_Int_t_, ptr %12, i32 0, i32 2
  %14 = load ptr, ptr %13, align 8, !tbaa !18
  %15 = icmp ne ptr %14, null
  br i1 %15, label %16, label %24

16:                                               ; preds = %11
  %17 = load ptr, ptr %3, align 8, !tbaa !10
  %18 = getelementptr inbounds nuw %struct.Vec_Int_t_, ptr %17, i32 0, i32 2
  %19 = load ptr, ptr %18, align 8, !tbaa !18
  %20 = load i32, ptr %4, align 4, !tbaa !8
  %21 = sext i32 %20 to i64
  %22 = mul i64 4, %21
  %23 = call ptr @realloc(ptr noundef %19, i64 noundef %22) #13
  br label %29

24:                                               ; preds = %11
  %25 = load i32, ptr %4, align 4, !tbaa !8
  %26 = sext i32 %25 to i64
  %27 = mul i64 4, %26
  %28 = call noalias ptr @malloc(i64 noundef %27) #11
  br label %29

29:                                               ; preds = %24, %16
  %30 = phi ptr [ %23, %16 ], [ %28, %24 ]
  %31 = load ptr, ptr %3, align 8, !tbaa !10
  %32 = getelementptr inbounds nuw %struct.Vec_Int_t_, ptr %31, i32 0, i32 2
  store ptr %30, ptr %32, align 8, !tbaa !18
  %33 = load i32, ptr %4, align 4, !tbaa !8
  %34 = load ptr, ptr %3, align 8, !tbaa !10
  %35 = getelementptr inbounds nuw %struct.Vec_Int_t_, ptr %34, i32 0, i32 0
  store i32 %33, ptr %35, align 8, !tbaa !17
  br label %36

36:                                               ; preds = %29, %10
  ret void
}

; Function Attrs: inlinehint nounwind uwtable
define internal void @Vec_IntPush(ptr noundef %0, i32 noundef %1) #2 {
  %3 = alloca ptr, align 8
  %4 = alloca i32, align 4
  store ptr %0, ptr %3, align 8, !tbaa !10
  store i32 %1, ptr %4, align 4, !tbaa !8
  %5 = load ptr, ptr %3, align 8, !tbaa !10
  %6 = getelementptr inbounds nuw %struct.Vec_Int_t_, ptr %5, i32 0, i32 1
  %7 = load i32, ptr %6, align 4, !tbaa !14
  %8 = load ptr, ptr %3, align 8, !tbaa !10
  %9 = getelementptr inbounds nuw %struct.Vec_Int_t_, ptr %8, i32 0, i32 0
  %10 = load i32, ptr %9, align 8, !tbaa !17
  %11 = icmp eq i32 %7, %10
  br i1 %11, label %12, label %26

12:                                               ; preds = %2
  %13 = load ptr, ptr %3, align 8, !tbaa !10
  %14 = getelementptr inbounds nuw %struct.Vec_Int_t_, ptr %13, i32 0, i32 0
  %15 = load i32, ptr %14, align 8, !tbaa !17
  %16 = icmp slt i32 %15, 16
  br i1 %16, label %17, label %19

17:                                               ; preds = %12
  %18 = load ptr, ptr %3, align 8, !tbaa !10
  call void @Vec_IntGrow(ptr noundef %18, i32 noundef 16)
  br label %25

19:                                               ; preds = %12
  %20 = load ptr, ptr %3, align 8, !tbaa !10
  %21 = load ptr, ptr %3, align 8, !tbaa !10
  %22 = getelementptr inbounds nuw %struct.Vec_Int_t_, ptr %21, i32 0, i32 0
  %23 = load i32, ptr %22, align 8, !tbaa !17
  %24 = mul nsw i32 2, %23
  call void @Vec_IntGrow(ptr noundef %20, i32 noundef %24)
  br label %25

25:                                               ; preds = %19, %17
  br label %26

26:                                               ; preds = %25, %2
  %27 = load i32, ptr %4, align 4, !tbaa !8
  %28 = load ptr, ptr %3, align 8, !tbaa !10
  %29 = getelementptr inbounds nuw %struct.Vec_Int_t_, ptr %28, i32 0, i32 2
  %30 = load ptr, ptr %29, align 8, !tbaa !18
  %31 = load ptr, ptr %3, align 8, !tbaa !10
  %32 = getelementptr inbounds nuw %struct.Vec_Int_t_, ptr %31, i32 0, i32 1
  %33 = load i32, ptr %32, align 4, !tbaa !14
  %34 = add nsw i32 %33, 1
  store i32 %34, ptr %32, align 4, !tbaa !14
  %35 = sext i32 %33 to i64
  %36 = getelementptr inbounds i32, ptr %30, i64 %35
  store i32 %27, ptr %36, align 4, !tbaa !8
  ret void
}

; Function Attrs: inlinehint nounwind uwtable
define internal i32 @Io_ReadAigerDecode(ptr noundef %0) #2 {
  %2 = alloca ptr, align 8
  %3 = alloca i32, align 4
  %4 = alloca i32, align 4
  %5 = alloca i8, align 1
  store ptr %0, ptr %2, align 8, !tbaa !3
  call void @llvm.lifetime.start.p0(i64 4, ptr %3) #10
  store i32 0, ptr %3, align 4, !tbaa !8
  call void @llvm.lifetime.start.p0(i64 4, ptr %4) #10
  store i32 0, ptr %4, align 4, !tbaa !8
  call void @llvm.lifetime.start.p0(i64 1, ptr %5) #10
  br label %6

6:                                                ; preds = %14, %1
  %7 = load ptr, ptr %2, align 8, !tbaa !3
  %8 = load ptr, ptr %7, align 8, !tbaa !19
  %9 = getelementptr inbounds nuw i8, ptr %8, i32 1
  store ptr %9, ptr %7, align 8, !tbaa !19
  %10 = load i8, ptr %8, align 1, !tbaa !21
  store i8 %10, ptr %5, align 1, !tbaa !21
  %11 = zext i8 %10 to i32
  %12 = and i32 %11, 128
  %13 = icmp ne i32 %12, 0
  br i1 %13, label %14, label %24

14:                                               ; preds = %6
  %15 = load i8, ptr %5, align 1, !tbaa !21
  %16 = zext i8 %15 to i32
  %17 = and i32 %16, 127
  %18 = load i32, ptr %4, align 4, !tbaa !8
  %19 = add i32 %18, 1
  store i32 %19, ptr %4, align 4, !tbaa !8
  %20 = mul i32 7, %18
  %21 = shl i32 %17, %20
  %22 = load i32, ptr %3, align 4, !tbaa !8
  %23 = or i32 %22, %21
  store i32 %23, ptr %3, align 4, !tbaa !8
  br label %6, !llvm.loop !22

24:                                               ; preds = %6
  %25 = load i32, ptr %3, align 4, !tbaa !8
  %26 = load i8, ptr %5, align 1, !tbaa !21
  %27 = zext i8 %26 to i32
  %28 = load i32, ptr %4, align 4, !tbaa !8
  %29 = mul i32 7, %28
  %30 = shl i32 %27, %29
  %31 = or i32 %25, %30
  call void @llvm.lifetime.end.p0(i64 1, ptr %5) #10
  call void @llvm.lifetime.end.p0(i64 4, ptr %4) #10
  call void @llvm.lifetime.end.p0(i64 4, ptr %3) #10
  ret i32 %31
}

; Function Attrs: inlinehint nounwind uwtable
define internal ptr @Vec_IntAlloc(i32 noundef %0) #2 {
  %2 = alloca i32, align 4
  %3 = alloca ptr, align 8
  store i32 %0, ptr %2, align 4, !tbaa !8
  call void @llvm.lifetime.start.p0(i64 8, ptr %3) #10
  %4 = call noalias ptr @malloc(i64 noundef 16) #11
  store ptr %4, ptr %3, align 8, !tbaa !10
  %5 = load i32, ptr %2, align 4, !tbaa !8
  %6 = icmp sgt i32 %5, 0
  br i1 %6, label %7, label %11

7:                                                ; preds = %1
  %8 = load i32, ptr %2, align 4, !tbaa !8
  %9 = icmp slt i32 %8, 16
  br i1 %9, label %10, label %11

10:                                               ; preds = %7
  store i32 16, ptr %2, align 4, !tbaa !8
  br label %11

11:                                               ; preds = %10, %7, %1
  %12 = load ptr, ptr %3, align 8, !tbaa !10
  %13 = getelementptr inbounds nuw %struct.Vec_Int_t_, ptr %12, i32 0, i32 1
  store i32 0, ptr %13, align 4, !tbaa !14
  %14 = load i32, ptr %2, align 4, !tbaa !8
  %15 = load ptr, ptr %3, align 8, !tbaa !10
  %16 = getelementptr inbounds nuw %struct.Vec_Int_t_, ptr %15, i32 0, i32 0
  store i32 %14, ptr %16, align 8, !tbaa !17
  %17 = load ptr, ptr %3, align 8, !tbaa !10
  %18 = getelementptr inbounds nuw %struct.Vec_Int_t_, ptr %17, i32 0, i32 0
  %19 = load i32, ptr %18, align 8, !tbaa !17
  %20 = icmp ne i32 %19, 0
  br i1 %20, label %21, label %28

21:                                               ; preds = %11
  %22 = load ptr, ptr %3, align 8, !tbaa !10
  %23 = getelementptr inbounds nuw %struct.Vec_Int_t_, ptr %22, i32 0, i32 0
  %24 = load i32, ptr %23, align 8, !tbaa !17
  %25 = sext i32 %24 to i64
  %26 = mul i64 4, %25
  %27 = call noalias ptr @malloc(i64 noundef %26) #11
  br label %29

28:                                               ; preds = %11
  br label %29

29:                                               ; preds = %28, %21
  %30 = phi ptr [ %27, %21 ], [ null, %28 ]
  %31 = load ptr, ptr %3, align 8, !tbaa !10
  %32 = getelementptr inbounds nuw %struct.Vec_Int_t_, ptr %31, i32 0, i32 2
  store ptr %30, ptr %32, align 8, !tbaa !18
  %33 = load ptr, ptr %3, align 8, !tbaa !10
  call void @llvm.lifetime.end.p0(i64 8, ptr %3) #10
  ret ptr %33
}

; Function Attrs: nounwind uwtable
define ptr @Io_WriteDecodeLiterals(ptr noundef %0, i32 noundef %1) #0 {
  %3 = alloca ptr, align 8
  %4 = alloca i32, align 4
  %5 = alloca ptr, align 8
  %6 = alloca i32, align 4
  %7 = alloca i32, align 4
  %8 = alloca i32, align 4
  %9 = alloca i32, align 4
  store ptr %0, ptr %3, align 8, !tbaa !3
  store i32 %1, ptr %4, align 4, !tbaa !8
  call void @llvm.lifetime.start.p0(i64 8, ptr %5) #10
  call void @llvm.lifetime.start.p0(i64 4, ptr %6) #10
  call void @llvm.lifetime.start.p0(i64 4, ptr %7) #10
  call void @llvm.lifetime.start.p0(i64 4, ptr %8) #10
  call void @llvm.lifetime.start.p0(i64 4, ptr %9) #10
  %10 = load i32, ptr %4, align 4, !tbaa !8
  %11 = call ptr @Vec_IntAlloc(i32 noundef %10)
  store ptr %11, ptr %5, align 8, !tbaa !10
  %12 = load ptr, ptr %3, align 8, !tbaa !3
  %13 = call i32 @Io_ReadAigerDecode(ptr noundef %12)
  store i32 %13, ptr %7, align 4, !tbaa !8
  %14 = load ptr, ptr %5, align 8, !tbaa !10
  %15 = load i32, ptr %7, align 4, !tbaa !8
  call void @Vec_IntPush(ptr noundef %14, i32 noundef %15)
  store i32 1, ptr %9, align 4, !tbaa !8
  br label %16

16:                                               ; preds = %41, %2
  %17 = load i32, ptr %9, align 4, !tbaa !8
  %18 = load i32, ptr %4, align 4, !tbaa !8
  %19 = icmp slt i32 %17, %18
  br i1 %19, label %20, label %44

20:                                               ; preds = %16
  %21 = load ptr, ptr %3, align 8, !tbaa !3
  %22 = call i32 @Io_ReadAigerDecode(ptr noundef %21)
  store i32 %22, ptr %8, align 4, !tbaa !8
  %23 = load i32, ptr %8, align 4, !tbaa !8
  %24 = and i32 %23, 1
  %25 = icmp ne i32 %24, 0
  br i1 %25, label %26, label %30

26:                                               ; preds = %20
  %27 = load i32, ptr %8, align 4, !tbaa !8
  %28 = ashr i32 %27, 1
  %29 = sub nsw i32 0, %28
  br label %33

30:                                               ; preds = %20
  %31 = load i32, ptr %8, align 4, !tbaa !8
  %32 = ashr i32 %31, 1
  br label %33

33:                                               ; preds = %30, %26
  %34 = phi i32 [ %29, %26 ], [ %32, %30 ]
  store i32 %34, ptr %8, align 4, !tbaa !8
  %35 = load i32, ptr %8, align 4, !tbaa !8
  %36 = load i32, ptr %7, align 4, !tbaa !8
  %37 = add nsw i32 %35, %36
  store i32 %37, ptr %6, align 4, !tbaa !8
  %38 = load ptr, ptr %5, align 8, !tbaa !10
  %39 = load i32, ptr %6, align 4, !tbaa !8
  call void @Vec_IntPush(ptr noundef %38, i32 noundef %39)
  %40 = load i32, ptr %6, align 4, !tbaa !8
  store i32 %40, ptr %7, align 4, !tbaa !8
  br label %41

41:                                               ; preds = %33
  %42 = load i32, ptr %9, align 4, !tbaa !8
  %43 = add nsw i32 %42, 1
  store i32 %43, ptr %9, align 4, !tbaa !8
  br label %16, !llvm.loop !12

44:                                               ; preds = %16
  %45 = load ptr, ptr %5, align 8, !tbaa !10
  call void @llvm.lifetime.end.p0(i64 4, ptr %9) #10
  call void @llvm.lifetime.end.p0(i64 4, ptr %8) #10
  call void @llvm.lifetime.end.p0(i64 4, ptr %7) #10
  call void @llvm.lifetime.end.p0(i64 4, ptr %6) #10
  call void @llvm.lifetime.end.p0(i64 8, ptr %5) #10
  ret ptr %45
}