; Function Attrs: nounwind uwtable
define noalias noundef ptr @Io_WriteDecodeLiterals(ptr noundef captures(none) %0, i32 noundef %1) local_unnamed_addr #0 {
  %3 = tail call noalias dereferenceable_or_null(16) ptr @malloc(i64 noundef 16) #12
  %4 = add i32 %1, -1
  %or.cond.i = icmp ult i32 %4, 15
  %spec.store.select.i = select i1 %or.cond.i, i32 16, i32 %1
  %5 = getelementptr inbounds nuw i8, ptr %3, i64 4
  store i32 %spec.store.select.i, ptr %3, align 8, !tbaa !3
  %.not.i = icmp eq i32 %spec.store.select.i, 0
  br i1 %.not.i, label %Vec_IntAlloc.exit, label %6

6:                                                ; preds = %2
  %7 = sext i32 %spec.store.select.i to i64
  %8 = shl nsw i64 %7, 2
  %9 = tail call noalias ptr @malloc(i64 noundef %8) #12
  br label %Vec_IntAlloc.exit

Vec_IntAlloc.exit:                                ; preds = %2, %6
  %10 = phi ptr [ %9, %6 ], [ null, %2 ]
  %11 = getelementptr inbounds nuw i8, ptr %3, i64 8
  store ptr %10, ptr %11, align 8, !tbaa !10
  %.promoted.i = load ptr, ptr %0, align 8, !tbaa !11
  %12 = getelementptr inbounds nuw i8, ptr %.promoted.i, i64 1
  store ptr %12, ptr %0, align 8, !tbaa !11
  %13 = load i8, ptr %.promoted.i, align 1, !tbaa !13
  %14 = zext i8 %13 to i32
  %.not7.i = icmp sgt i8 %13, -1
  br i1 %.not7.i, label %Io_ReadAigerDecode.exit, label %.lr.ph.i

.lr.ph.i:                                         ; preds = %Vec_IntAlloc.exit, %.lr.ph.i
  %15 = phi i32 [ %24, %.lr.ph.i ], [ %14, %Vec_IntAlloc.exit ]
  %16 = phi ptr [ %22, %.lr.ph.i ], [ %12, %Vec_IntAlloc.exit ]
  %.09.i = phi i32 [ %21, %.lr.ph.i ], [ 0, %Vec_IntAlloc.exit ]
  %.068.i = phi i32 [ %18, %.lr.ph.i ], [ 0, %Vec_IntAlloc.exit ]
  %17 = and i32 %15, 127
  %18 = add i32 %.068.i, 1
  %19 = mul i32 %.068.i, 7
  %20 = shl i32 %17, %19
  %21 = or i32 %20, %.09.i
  %22 = getelementptr inbounds nuw i8, ptr %16, i64 1
  store ptr %22, ptr %0, align 8, !tbaa !11
  %23 = load i8, ptr %16, align 1, !tbaa !13
  %24 = zext i8 %23 to i32
  %.not.i17 = icmp sgt i8 %23, -1
  br i1 %.not.i17, label %._crit_edge.loopexit.i, label %.lr.ph.i, !llvm.loop !14

._crit_edge.loopexit.i:                           ; preds = %.lr.ph.i
  %25 = mul i32 %18, 7
  br label %Io_ReadAigerDecode.exit

Io_ReadAigerDecode.exit:                          ; preds = %Vec_IntAlloc.exit, %._crit_edge.loopexit.i
  %.06.lcssa.i = phi i32 [ 0, %Vec_IntAlloc.exit ], [ %25, %._crit_edge.loopexit.i ]
  %.0.lcssa.i = phi i32 [ 0, %Vec_IntAlloc.exit ], [ %21, %._crit_edge.loopexit.i ]
  %.lcssa.i = phi i32 [ %14, %Vec_IntAlloc.exit ], [ %24, %._crit_edge.loopexit.i ]
  %26 = shl i32 %.lcssa.i, %.06.lcssa.i
  %27 = or i32 %26, %.0.lcssa.i
  br i1 %.not.i, label %28, label %Vec_IntPush.exit

28:                                               ; preds = %Io_ReadAigerDecode.exit
  %.not9.i.i = icmp eq ptr %10, null
  br i1 %.not9.i.i, label %31, label %29

29:                                               ; preds = %28
  %30 = tail call dereferenceable_or_null(64) ptr @realloc(ptr noundef nonnull %10, i64 noundef 64) #13
  br label %Vec_IntGrow.exit.i

31:                                               ; preds = %28
  %32 = tail call noalias dereferenceable_or_null(64) ptr @malloc(i64 noundef 64) #12
  br label %Vec_IntGrow.exit.i

Vec_IntGrow.exit.i:                               ; preds = %31, %29
  %33 = phi ptr [ %30, %29 ], [ %32, %31 ]
  store ptr %33, ptr %11, align 8, !tbaa !10
  store i32 16, ptr %3, align 8, !tbaa !3
  br label %Vec_IntPush.exit

Vec_IntPush.exit:                                 ; preds = %Io_ReadAigerDecode.exit, %Vec_IntGrow.exit.i
  %34 = phi ptr [ %33, %Vec_IntGrow.exit.i ], [ %10, %Io_ReadAigerDecode.exit ]
  store i32 1, ptr %5, align 4, !tbaa !16
  store i32 %27, ptr %34, align 4, !tbaa !17
  %35 = icmp sgt i32 %1, 1
  br i1 %35, label %.lr.ph, label %._crit_edge

.lr.ph:                                           ; preds = %Vec_IntPush.exit, %Vec_IntPush.exit35
  %36 = phi ptr [ %.pre.i3148, %Vec_IntPush.exit35 ], [ %34, %Vec_IntPush.exit ]
  %.042 = phi i32 [ %79, %Vec_IntPush.exit35 ], [ 1, %Vec_IntPush.exit ]
  %.01641 = phi i32 [ %57, %Vec_IntPush.exit35 ], [ %27, %Vec_IntPush.exit ]
  %.promoted.i18 = load ptr, ptr %0, align 8, !tbaa !11
  %37 = getelementptr inbounds nuw i8, ptr %.promoted.i18, i64 1
  store ptr %37, ptr %0, align 8, !tbaa !11
  %38 = load i8, ptr %.promoted.i18, align 1, !tbaa !13
  %39 = zext i8 %38 to i32
  %.not7.i19 = icmp sgt i8 %38, -1
  br i1 %.not7.i19, label %Io_ReadAigerDecode.exit28, label %.lr.ph.i20

.lr.ph.i20:                                       ; preds = %.lr.ph, %.lr.ph.i20
  %40 = phi i32 [ %49, %.lr.ph.i20 ], [ %39, %.lr.ph ]
  %41 = phi ptr [ %47, %.lr.ph.i20 ], [ %37, %.lr.ph ]
  %.09.i21 = phi i32 [ %46, %.lr.ph.i20 ], [ 0, %.lr.ph ]
  %.068.i22 = phi i32 [ %43, %.lr.ph.i20 ], [ 0, %.lr.ph ]
  %42 = and i32 %40, 127
  %43 = add i32 %.068.i22, 1
  %44 = mul i32 %.068.i22, 7
  %45 = shl i32 %42, %44
  %46 = or i32 %45, %.09.i21
  %47 = getelementptr inbounds nuw i8, ptr %41, i64 1
  store ptr %47, ptr %0, align 8, !tbaa !11
  %48 = load i8, ptr %41, align 1, !tbaa !13
  %49 = zext i8 %48 to i32
  %.not.i23 = icmp sgt i8 %48, -1
  br i1 %.not.i23, label %._crit_edge.loopexit.i24, label %.lr.ph.i20, !llvm.loop !14

._crit_edge.loopexit.i24:                         ; preds = %.lr.ph.i20
  %50 = mul i32 %43, 7
  br label %Io_ReadAigerDecode.exit28

Io_ReadAigerDecode.exit28:                        ; preds = %.lr.ph, %._crit_edge.loopexit.i24
  %.06.lcssa.i25 = phi i32 [ 0, %.lr.ph ], [ %50, %._crit_edge.loopexit.i24 ]
  %.0.lcssa.i26 = phi i32 [ 0, %.lr.ph ], [ %46, %._crit_edge.loopexit.i24 ]
  %.lcssa.i27 = phi i32 [ %39, %.lr.ph ], [ %49, %._crit_edge.loopexit.i24 ]
  %51 = shl i32 %.lcssa.i27, %.06.lcssa.i25
  %52 = or i32 %51, %.0.lcssa.i26
  %53 = and i32 %52, 1
  %.not = icmp eq i32 %53, 0
  %54 = ashr i32 %52, 1
  %55 = sub nsw i32 0, %54
  %56 = select i1 %.not, i32 %54, i32 %55
  %57 = add nsw i32 %56, %.01641
  %58 = load i32, ptr %5, align 4, !tbaa !16
  %59 = load i32, ptr %3, align 8, !tbaa !3
  %60 = icmp eq i32 %58, %59
  br i1 %60, label %61, label %Vec_IntPush.exit35

61:                                               ; preds = %Io_ReadAigerDecode.exit28
  %62 = icmp slt i32 %58, 16
  br i1 %62, label %63, label %68

63:                                               ; preds = %61
  %.not9.i.i33 = icmp eq ptr %36, null
  br i1 %.not9.i.i33, label %66, label %64

64:                                               ; preds = %63
  %65 = tail call dereferenceable_or_null(64) ptr @realloc(ptr noundef nonnull %36, i64 noundef 64) #13
  br label %Vec_IntPush.exit35.sink.split

66:                                               ; preds = %63
  %67 = tail call noalias dereferenceable_or_null(64) ptr @malloc(i64 noundef 64) #12
  br label %Vec_IntPush.exit35.sink.split

68:                                               ; preds = %61
  %69 = shl nuw nsw i32 %58, 1
  %.not9.i9.i32 = icmp eq ptr %36, null
  %70 = zext nneg i32 %69 to i64
  %71 = shl nuw nsw i64 %70, 2
  br i1 %.not9.i9.i32, label %74, label %72

72:                                               ; preds = %68
  %73 = tail call ptr @realloc(ptr noundef nonnull %36, i64 noundef %71) #13
  br label %Vec_IntPush.exit35.sink.split

74:                                               ; preds = %68
  %75 = tail call noalias ptr @malloc(i64 noundef %71) #12
  br label %Vec_IntPush.exit35.sink.split

Vec_IntPush.exit35.sink.split:                    ; preds = %72, %74, %64, %66
  %.sink55 = phi ptr [ %65, %64 ], [ %67, %66 ], [ %73, %72 ], [ %75, %74 ]
  %.sink = phi i32 [ 16, %64 ], [ 16, %66 ], [ %69, %72 ], [ %69, %74 ]
  store ptr %.sink55, ptr %11, align 8, !tbaa !10
  store i32 %.sink, ptr %3, align 8, !tbaa !3
  br label %Vec_IntPush.exit35

Vec_IntPush.exit35:                               ; preds = %Vec_IntPush.exit35.sink.split, %Io_ReadAigerDecode.exit28
  %.pre.i3148 = phi ptr [ %36, %Io_ReadAigerDecode.exit28 ], [ %.sink55, %Vec_IntPush.exit35.sink.split ]
  %76 = add nsw i32 %58, 1
  store i32 %76, ptr %5, align 4, !tbaa !16
  %77 = sext i32 %58 to i64
  %78 = getelementptr inbounds i32, ptr %.pre.i3148, i64 %77
  store i32 %57, ptr %78, align 4, !tbaa !17
  %79 = add nuw nsw i32 %.042, 1
  %exitcond.not = icmp eq i32 %79, %1
  br i1 %exitcond.not, label %._crit_edge, label %.lr.ph, !llvm.loop !18

._crit_edge:                                      ; preds = %Vec_IntPush.exit35, %Vec_IntPush.exit
  ret ptr %3
}